; Function Attrs: mustprogress sspstrong uwtable
define noundef zeroext i1 @_ZN4FLAC8Metadata13VorbisComment11set_commentEjRKNS1_5EntryE(ptr nocapture noundef nonnull readonly align 8 dereferenceable(17) %this, i32 noundef %indx, ptr nocapture noundef nonnull readonly align 8 dereferenceable(60) %entry1) local_unnamed_addr #0 align 2 {
entry:
  %object_ = getelementptr inbounds i8, ptr %this, i64 8
  %0 = load ptr, ptr %object_, align 8
  %entry_.i = getelementptr inbounds i8, ptr %entry1, i64 16
  %retval.sroa.0.0.copyload.i = load i32, ptr %entry_.i, align 8
  %retval.sroa.21.0.entry_.sroa_idx.i = getelementptr inbounds i8, ptr %entry1, i64 24
  %retval.sroa.21.0.copyload.i = load ptr, ptr %retval.sroa.21.0.entry_.sroa_idx.i, align 8
  %call3 = tail call i32 @FLAC__metadata_object_vorbiscomment_set_comment(ptr noundef %0, i32 noundef %indx, i32 %retval.sroa.0.0.copyload.i, ptr %retval.sroa.21.0.copyload.i, i32 noundef 1)
  %tobool = icmp ne i32 %call3, 0
  ret i1 %tobool
}